target datalayout = "e-m:e-p270:32:32-p271:32:32-p272:64:64-i64:64-i128:128-f80:128-n8:16:32:64-S128"
target triple = "x86_64-pc-linux-gnu"

%struct.DCAXllDecoder = type { ptr, %struct.GetBitContext, i32, i32, i32, i32, i32, i32, i32, i32, i32, i32, i32, i32, [8 x i8], [3 x %struct.DCAXllChSet], ptr, i32, i32, i32, i32, i32, i32, ptr, i32, i32, ptr, i32, i32, i32, [32 x ptr], [8 x i8] }
%struct.GetBitContext = type { ptr, ptr, i32, i32, i32 }
%struct.DCAXllChSet = type { i32, i32, i32, i32, i32, i32, i32, i32, i32, i32, i32, [128 x i32], [16 x i32], [16 x i32], i32, [8 x i32], i32, i32, [2 x %struct.DCAXllBand], i32, [8 x i32], [8 x i32], [8 x i32], [8 x i32], [8 x i32], [4 x i8], [8 x [8 x i32]], [3 x i32], [3 x ptr], [8 x i8] }
%struct.DCAXllBand = type { i32, [8 x i32], [4 x i32], [8 x i32], i32, [8 x i32], [8 x [16 x i32]], i32, i32, [8 x i32], [8 x i32], [8 x ptr], [8 x ptr] }
%struct.DCAExssAsset = type { i32, i32, i32, i32, i32, i32, i32, i32, i32, i32, i32, i32, i32, i32, i32, i32, i32, i32, i32, i32, i32, i32, i32, i32, i32, i32, i32, i32, i32, i32 }
%struct.AVCodecContext = type { ptr, i32, i32, ptr, i32, i32, ptr, ptr, ptr, i64, i32, i32, ptr, i32, %struct.AVRational, %struct.AVRational, %struct.AVRational, i32, i32, i32, i32, i32, %struct.AVRational, i32, i32, i32, i32, i32, i32, i32, i32, i32, i32, i32, ptr, ptr, i32, float, float, float, float, float, float, float, float, float, i32, i32, i32, i32, i32, i32, i32, i32, i32, i32, i32, i32, ptr, ptr, ptr, i32, i32, i32, i32, i32, i32, i32, i32, i32, i32, %struct.AVChannelLayout, i32, i32, i32, i32, i32, i32, i32, i32, ptr, i32, i32, i32, float, float, i32, i32, i32, i32, i32, ptr, i64, i64, float, float, i32, i32, ptr, ptr, i32, i32, i32, i32, i32, ptr, ptr, ptr, ptr, i32, i32, [8 x i64], i32, i32, i32, i32, i32, i32, i32, ptr, ptr, i32, i32, i32, i32, i32, i32, i32, i32, i32, i32, ptr, ptr, i32, i32, ptr, ptr, ptr, ptr, i32, i32, i64, i32, i32, i64, ptr, i64, ptr, i32, ptr, i32 }
%struct.AVRational = type { i32, i32 }
%struct.AVChannelLayout = type { i32, i32, %union.anon, ptr }
%union.anon = type { i64 }
%struct.DCAContext = type { ptr, ptr, %struct.DCACoreDecoder, %struct.DCAExssParser, %struct.DCAXllDecoder, %struct.DCALbrDecoder, %struct.DCADSPContext, ptr, ptr, i32, i32, i32, i32, i32, %struct.AVChannelLayout }
%struct.DCACoreDecoder = type { ptr, %struct.GetBitContext, %struct.GetBitContext, i32, i32, i32, i32, i32, i32, i32, i32, i32, i32, i32, i32, i32, i32, i32, i32, i32, i32, i32, i32, i32, i32, [7 x i8], [7 x i8], [7 x i8], [7 x i8], [7 x i8], [7 x i8], [7 x [10 x i8]], [7 x [10 x i32]], [16 x i8], [7 x [64 x i8]], [7 x [64 x i16]], [7 x [64 x i8]], [16 x [7 x [32 x i8]]], [7 x [32 x [2 x i32]]], [7 x i8], [7 x [64 x i32]], i32, i32, [24 x i32], i32, i32, i32, i32, i32, i32, i32, i32, [2 x i32], [12 x i32], i32, i32, i32, i32, i32, i32, i32, i32, i32, ptr, [7 x [64 x ptr]], i32, ptr, [7 x [32 x ptr]], ptr, [8 x i8], [7 x %struct.DCADSPData], ptr, %struct.DCADCTContext, [2 x ptr], [2 x ptr], %struct.SynthFilterContext, ptr, ptr, i32, ptr, [32 x ptr], i32, float, [32 x i32], i32, i32, i32, i32 }
%struct.DCADSPData = type { %union.anon.0, i32, [12 x i8] }
%union.anon.0 = type { %struct.anon }
%struct.anon = type { [1024 x float], [64 x float] }
%struct.DCADCTContext = type { [2 x ptr] }
%struct.SynthFilterContext = type { ptr, ptr, ptr, ptr }
%struct.DCAExssParser = type { ptr, %struct.GetBitContext, i32, i32, i32, i32, i32, i32, i32, i32, [4 x i32], [1 x %struct.DCAExssAsset] }
%struct.DCALbrDecoder = type { ptr, %struct.GetBitContext, i32, i32, i32, i32, i32, i32, i32, i32, i32, i32, i32, i32, i32, i32, i32, i32, i32, i32, i32, [3 x [32 x i8]], [32 x i8], [3 x [32 x i8]], [3 x [32 x i8]], [6 x i32], [6 x [12 x [8 x i8]]], [6 x [3 x [64 x i8]]], [6 x [28 x i8]], [6 x [28 x [8 x i8]]], [6 x i32], [6 x [32 x [8 x i8]]], [6 x [8 x [5 x i8]]], i8, [2 x [6 x [3 x [2 x [8 x float]]]]], [32 x float], [6 x [32 x ptr]], ptr, i32, [4 x i8], [6 x [128 x float]], [128 x float], [64 x float], [5 x [2 x float]], float, [6 x i8], [5 x [32 x [2 x i16]]], [512 x %struct.DCALbrTone], i32, ptr, ptr, ptr, ptr, [8 x i8] }
%struct.DCALbrTone = type { i8, i8, i8, i8, [6 x i8], [6 x i8] }
%struct.DCADSPContext = type { ptr, ptr, [2 x ptr], ptr, [2 x ptr], ptr, ptr, [2 x ptr], ptr, ptr, ptr, ptr, ptr, ptr, ptr, ptr, ptr }

; Function Attrs: inlinehint nounwind uwtable
define internal i32 @ff_dca_core_map_spkr(ptr noundef %0, i32 noundef %1) #5 {
  %3 = alloca i32, align 4
  %4 = alloca ptr, align 8
  %5 = alloca i32, align 4
  store ptr %0, ptr %4, align 8, !tbaa !236
  store i32 %1, ptr %5, align 4, !tbaa !25
  %6 = load ptr, ptr %4, align 8, !tbaa !236
  %7 = getelementptr inbounds nuw %struct.DCACoreDecoder, ptr %6, i32 0, i32 24
  %8 = load i32, ptr %7, align 4, !tbaa !238
  %9 = load i32, ptr %5, align 4, !tbaa !25
  %10 = shl i32 1, %9
  %11 = and i32 %8, %10
  %12 = icmp ne i32 %11, 0
  br i1 %12, label %13, label %15

13:                                               ; preds = %2
  %14 = load i32, ptr %5, align 4, !tbaa !25
  store i32 %14, ptr %3, align 4
  br label %36

15:                                               ; preds = %2
  %16 = load i32, ptr %5, align 4, !tbaa !25
  %17 = icmp eq i32 %16, 9
  br i1 %17, label %18, label %25

18:                                               ; preds = %15
  %19 = load ptr, ptr %4, align 8, !tbaa !236
  %20 = getelementptr inbounds nuw %struct.DCACoreDecoder, ptr %19, i32 0, i32 24
  %21 = load i32, ptr %20, align 4, !tbaa !238
  %22 = and i32 %21, 8
  %23 = icmp ne i32 %22, 0
  br i1 %23, label %24, label %25

24:                                               ; preds = %18
  store i32 3, ptr %3, align 4
  br label %36

25:                                               ; preds = %18, %15
  %26 = load i32, ptr %5, align 4, !tbaa !25
  %27 = icmp eq i32 %26, 10
  br i1 %27, label %28, label %35

28:                                               ; preds = %25
  %29 = load ptr, ptr %4, align 8, !tbaa !236
  %30 = getelementptr inbounds nuw %struct.DCACoreDecoder, ptr %29, i32 0, i32 24
  %31 = load i32, ptr %30, align 4, !tbaa !238
  %32 = and i32 %31, 16
  %33 = icmp ne i32 %32, 0
  br i1 %33, label %34, label %35

34:                                               ; preds = %28
  store i32 4, ptr %3, align 4
  br label %36

35:                                               ; preds = %28, %25
  store i32 -1, ptr %3, align 4
  br label %36

36:                                               ; preds = %35, %34, %24, %13
  %37 = load i32, ptr %3, align 4
  ret i32 %37
}

; Function Attrs: cold nounwind optsize uwtable
define internal void @force_lossy_output(ptr noundef %0, ptr noundef %1) #2 {
  %3 = alloca ptr, align 8
  %4 = alloca ptr, align 8
  %5 = alloca ptr, align 8
  %6 = alloca i32, align 4
  %7 = alloca i32, align 4
  store ptr %0, ptr %3, align 8, !tbaa !4
  store ptr %1, ptr %4, align 8, !tbaa !55
  call void @llvm.lifetime.start.p0(i64 8, ptr %5) #10
  %8 = load ptr, ptr %3, align 8, !tbaa !4
  %9 = getelementptr inbounds nuw %struct.DCAXllDecoder, ptr %8, i32 0, i32 0
  %10 = load ptr, ptr %9, align 16, !tbaa !34
  %11 = getelementptr inbounds nuw %struct.AVCodecContext, ptr %10, i32 0, i32 6
  %12 = load ptr, ptr %11, align 8, !tbaa !36
  store ptr %12, ptr %5, align 8, !tbaa !53
  call void @llvm.lifetime.start.p0(i64 4, ptr %6) #10
  call void @llvm.lifetime.start.p0(i64 4, ptr %7) #10
  store i32 0, ptr %6, align 4, !tbaa !25
  br label %13

13:                                               ; preds = %23, %2
  %14 = load i32, ptr %6, align 4, !tbaa !25
  %15 = load ptr, ptr %4, align 8, !tbaa !55
  %16 = getelementptr inbounds nuw %struct.DCAXllChSet, ptr %15, i32 0, i32 16
  %17 = load i32, ptr %16, align 16, !tbaa !81
  %18 = icmp slt i32 %14, %17
  br i1 %18, label %19, label %26

19:                                               ; preds = %13
  %20 = load ptr, ptr %3, align 8, !tbaa !4
  %21 = load ptr, ptr %4, align 8, !tbaa !55
  %22 = load i32, ptr %6, align 4, !tbaa !25
  call void @chs_clear_band_data(ptr noundef %20, ptr noundef %21, i32 noundef %22, i32 noundef -1) #11
  br label %23

23:                                               ; preds = %19
  %24 = load i32, ptr %6, align 4, !tbaa !25
  %25 = add nsw i32 %24, 1
  store i32 %25, ptr %6, align 4, !tbaa !25
  br label %13, !llvm.loop !122

26:                                               ; preds = %13
  store i32 0, ptr %7, align 4, !tbaa !25
  br label %27

27:                                               ; preds = %62, %26
  %28 = load i32, ptr %7, align 4, !tbaa !25
  %29 = load ptr, ptr %4, align 8, !tbaa !55
  %30 = getelementptr inbounds nuw %struct.DCAXllChSet, ptr %29, i32 0, i32 0
  %31 = load i32, ptr %30, align 16, !tbaa !80
  %32 = icmp slt i32 %28, %31
  br i1 %32, label %33, label %65

33:                                               ; preds = %27
  %34 = load ptr, ptr %4, align 8, !tbaa !55
  %35 = getelementptr inbounds nuw %struct.DCAXllChSet, ptr %34, i32 0, i32 1
  %36 = load i32, ptr %35, align 4, !tbaa !79
  %37 = load i32, ptr %7, align 4, !tbaa !25
  %38 = shl i32 1, %37
  %39 = and i32 %36, %38
  %40 = icmp ne i32 %39, 0
  br i1 %40, label %42, label %41

41:                                               ; preds = %33
  br label %62

42:                                               ; preds = %33
  %43 = load ptr, ptr %5, align 8, !tbaa !53
  %44 = getelementptr inbounds nuw %struct.DCAContext, ptr %43, i32 0, i32 2
  %45 = load ptr, ptr %4, align 8, !tbaa !55
  %46 = getelementptr inbounds nuw %struct.DCAXllChSet, ptr %45, i32 0, i32 15
  %47 = load i32, ptr %7, align 4, !tbaa !25
  %48 = sext i32 %47 to i64
  %49 = getelementptr inbounds [8 x i32], ptr %46, i64 0, i64 %48
  %50 = load i32, ptr %49, align 4, !tbaa !25
  %51 = call i32 @ff_dca_core_map_spkr(ptr noundef %44, i32 noundef %50)
  %52 = icmp slt i32 %51, 0
  br i1 %52, label %53, label %54

53:                                               ; preds = %42
  br label %62

54:                                               ; preds = %42
  %55 = load i32, ptr %7, align 4, !tbaa !25
  %56 = shl i32 1, %55
  %57 = xor i32 %56, -1
  %58 = load ptr, ptr %4, align 8, !tbaa !55
  %59 = getelementptr inbounds nuw %struct.DCAXllChSet, ptr %58, i32 0, i32 1
  %60 = load i32, ptr %59, align 4, !tbaa !79
  %61 = and i32 %60, %57
  store i32 %61, ptr %59, align 4, !tbaa !79
  br label %62

62:                                               ; preds = %54, %53, %41
  %63 = load i32, ptr %7, align 4, !tbaa !25
  %64 = add nsw i32 %63, 1
  store i32 %64, ptr %7, align 4, !tbaa !25
  br label %27, !llvm.loop !123

65:                                               ; preds = %27
  call void @llvm.lifetime.end.p0(i64 4, ptr %7) #10
  call void @llvm.lifetime.end.p0(i64 4, ptr %6) #10
  call void @llvm.lifetime.end.p0(i64 8, ptr %5) #10
  ret void
}