; Function Attrs: cold nofree norecurse nosync nounwind optsize memory(readwrite, inaccessiblemem: none) uwtable
define internal fastcc void @force_lossy_output(ptr noundef readonly captures(none) %0, ptr noundef captures(none) %1) unnamed_addr #2 {
  %3 = load ptr, ptr %0, align 16, !tbaa !26
  %4 = getelementptr inbounds nuw i8, ptr %3, i64 32
  %5 = load ptr, ptr %4, align 8, !tbaa !27
  %6 = getelementptr inbounds nuw i8, ptr %1, i64 720
  %7 = load i32, ptr %6, align 16, !tbaa !85
  %8 = icmp sgt i32 %7, 0
  br i1 %8, label %.lr.ph, label %.preheader

.preheader:                                       ; preds = %.lr.ph, %2
  %9 = load i32, ptr %1, align 16, !tbaa !67
  %10 = icmp sgt i32 %9, 0
  br i1 %10, label %.lr.ph22, label %._crit_edge

.lr.ph22:                                         ; preds = %.preheader
  %11 = getelementptr inbounds nuw i8, ptr %1, i64 4
  %12 = getelementptr inbounds nuw i8, ptr %1, i64 688
  %13 = getelementptr i8, ptr %5, i64 172
  %.promoted = load i32, ptr %11, align 4, !tbaa !66
  %wide.trip.count = zext nneg i32 %9 to i64
  br label %17

.lr.ph:                                           ; preds = %2, %.lr.ph
  %.01620 = phi i32 [ %14, %.lr.ph ], [ 0, %2 ]
  tail call fastcc void @chs_clear_band_data(ptr noundef nonnull %0, ptr noundef nonnull %1, i32 noundef %.01620, i32 noundef -1) #13
  %14 = add nuw nsw i32 %.01620, 1
  %15 = load i32, ptr %6, align 16, !tbaa !85
  %16 = icmp slt i32 %14, %15
  br i1 %16, label %.lr.ph, label %.preheader, !llvm.loop !132

17:                                               ; preds = %.lr.ph22, %ff_dca_core_map_spkr.exit.thread18
  %indvars.iv = phi i64 [ 0, %.lr.ph22 ], [ %indvars.iv.next, %ff_dca_core_map_spkr.exit.thread18 ]
  %18 = phi i32 [ %.promoted, %.lr.ph22 ], [ %36, %ff_dca_core_map_spkr.exit.thread18 ]
  %19 = trunc nuw nsw i64 %indvars.iv to i32
  %20 = shl nuw i32 1, %19
  %21 = and i32 %18, %20
  %.not = icmp eq i32 %21, 0
  br i1 %.not, label %ff_dca_core_map_spkr.exit.thread18, label %22

22:                                               ; preds = %17
  %23 = getelementptr inbounds nuw [8 x i32], ptr %12, i64 0, i64 %indvars.iv
  %24 = load i32, ptr %23, align 4, !tbaa !74
  %.val = load i32, ptr %13, align 4, !tbaa !75
  %25 = shl nuw i32 1, %24
  %26 = and i32 %25, %.val
  %.not.i = icmp eq i32 %26, 0
  br i1 %.not.i, label %27, label %ff_dca_core_map_spkr.exit

27:                                               ; preds = %22
  %28 = icmp ne i32 %24, 9
  %29 = and i32 %.val, 8
  %.not7.i = icmp eq i32 %29, 0
  %or.cond.i = or i1 %28, %.not7.i
  br i1 %or.cond.i, label %30, label %ff_dca_core_map_spkr.exit.thread

30:                                               ; preds = %27
  %31 = icmp ne i32 %24, 10
  %32 = and i32 %.val, 16
  %.not8.i = icmp eq i32 %32, 0
  %or.cond1.i = or i1 %31, %.not8.i
  br i1 %or.cond1.i, label %ff_dca_core_map_spkr.exit.thread18, label %ff_dca_core_map_spkr.exit.thread

ff_dca_core_map_spkr.exit:                        ; preds = %22
  %33 = icmp slt i32 %24, 0
  br i1 %33, label %ff_dca_core_map_spkr.exit.thread18, label %ff_dca_core_map_spkr.exit.thread

ff_dca_core_map_spkr.exit.thread:                 ; preds = %30, %27, %ff_dca_core_map_spkr.exit
  %34 = xor i32 %20, -1
  %35 = and i32 %18, %34
  store i32 %35, ptr %11, align 4, !tbaa !66
  br label %ff_dca_core_map_spkr.exit.thread18

ff_dca_core_map_spkr.exit.thread18:               ; preds = %30, %ff_dca_core_map_spkr.exit, %17, %ff_dca_core_map_spkr.exit.thread
  %36 = phi i32 [ %18, %30 ], [ %18, %ff_dca_core_map_spkr.exit ], [ %18, %17 ], [ %35, %ff_dca_core_map_spkr.exit.thread ]
  %indvars.iv.next = add nuw nsw i64 %indvars.iv, 1
  %exitcond.not = icmp eq i64 %indvars.iv.next, %wide.trip.count
  br i1 %exitcond.not, label %._crit_edge, label %17, !llvm.loop !133

._crit_edge:                                      ; preds = %ff_dca_core_map_spkr.exit.thread18, %.preheader
  ret void
}